; Function Attrs: mustprogress nofree norecurse nosync nounwind willreturn memory(argmem: write) uwtable
define internal void @_ZNK7rocksdb12experimental12_GLOBAL__N_132SstQueryFilterConfigsManagerImpl11MyCollector21GetReadablePropertiesB5cxx11Ev(ptr dead_on_unwind noalias writable sret(%"class.std::map.816") align 8 initializes((0, 24)) %0, ptr nonnull readnone align 8 captures(none) %1) unnamed_addr #27 align 2 personality ptr @__gxx_personality_v0 {
  %3 = getelementptr inbounds nuw i8, ptr %0, i64 8
  %4 = getelementptr inbounds nuw i8, ptr %0, i64 24
  tail call void @llvm.memset.p0.i64(ptr noundef nonnull align 8 dereferenceable(24) %0, i8 0, i64 24, i1 false)
  store ptr %3, ptr %4, align 8, !tbaa !416
  %5 = getelementptr inbounds nuw i8, ptr %0, i64 32
  store ptr %3, ptr %5, align 8, !tbaa !417
  %6 = getelementptr inbounds nuw i8, ptr %0, i64 40
  store i64 0, ptr %6, align 8, !tbaa !518
  ret void
}